Certificate:
    Data:
        Version: 3 (0x2)
        Serial Number:
            b0:02:71:23:0d:52:d8:56
    Signature Algorithm: sha256WithRSAEncryption
        Issuer: C=US, ST=Hawaii, L=Kamuela, O=BrainCraft.io, OU=CertAuthority BCIO IT Services, CN=IT Services/emailAddress=admin@braincraft.io
        Validity
            Not Before: Jun  1 05:32:03 2019 GMT
            Not After : May 31 05:32:03 2020 GMT
        Subject: C=US, ST=Hawaii, L=Kamuela, O=BrainCraft.io, OU=CertAuthority BCIO IT Services, CN=lxd.mirror.corp.braincraft.io/emailAddress=admin@braincraft.io
        Subject Public Key Info:
            Public Key Algorithm: rsaEncryption
                Public-Key: (1024 bit)
                Modulus:
                    00:f5:6f:02:2e:68:f8:38:c8:31:46:6a:46:07:31:
                    4b:cb:5f:db:44:08:ab:a5:b2:ad:76:2b:25:8e:23:
                    18:55:8c:c3:09:2f:e3:16:bb:a3:b5:46:13:3c:4f:
                    76:0f:33:88:a0:c5:fd:a7:96:05:bf:bf:c9:19:5f:
                    c9:a2:61:89:3c:5b:84:7f:14:e0:79:ed:4d:46:d9:
                    82:96:60:23:9f:db:ad:8b:83:84:a3:1e:23:d5:80:
                    4a:c4:25:2b:60:95:4d:31:72:13:ea:a9:63:09:e9:
                    b9:c2:9a:b4:41:3e:36:41:4c:45:1f:c2:b7:32:79:
                    8f:df:ae:89:72:c5:bf:41:6b
                Exponent: 65537 (0x10001)
        X509v3 extensions:
            X509v3 Basic Constraints: 
                CA:FALSE
            Netscape Comment: 
                BCIO CertAuthority OpenSSL Generated Certificate
            X509v3 Subject Key Identifier: 
                DB:F7:C1:69:15:F4:75:2F:97:1A:16:B0:0E:FC:84:59:88:55:F3:74
            X509v3 Authority Key Identifier: 
                keyid:6D:6B:21:29:18:40:DD:04:90:F5:04:88:48:96:FA:A6:A4:01:83:E1
                DirName:/C=US/ST=Hawaii/L=Kamuela/O=BrainCraft.io/OU=CertAuthority BCIO IT Services/CN=IT Services/emailAddress=admin@braincraft.io
                serial:B0:02:71:23:0D:52:D8:55

    Signature Algorithm: sha256WithRSAEncryption
         9e:e3:1d:00:a6:df:8f:99:32:a8:24:e3:eb:ce:bd:64:12:38:
         ee:46:d9:a3:cf:f7:c3:9c:57:02:a8:8f:3a:2c:0a:5a:fb:4b:
         78:3a:0b:39:48:01:3f:7f:07:44:95:64:35:25:fe:c5:79:0b:
         03:46:28:11:09:04:2f:f1:d8:98:d9:e3:35:db:3f:36:be:7d:
         4d:e3:fe:08:80:82:1e:44:7d:ee:0f:b0:05:dc:66:f9:b9:b5:
         44:dc:1d:55:d0:fc:63:c0:17:69:28:44:45:e9:26:51:64:bf:
         20:41:36:da:54:0b:c8:96:5c:4d:22:21:66:18:f5:1f:84:41:
         be:9d
-----BEGIN CERTIFICATE-----
MIIEPDCCA6WgAwIBAgIJALACcSMNUthWMA0GCSqGSIb3DQEBCwUAMIGrMQswCQYD
VQQGEwJVUzEPMA0GA1UECBMGSGF3YWlpMRAwDgYDVQQHEwdLYW11ZWxhMRYwFAYD
VQQKEw1CcmFpbkNyYWZ0LmlvMScwJQYDVQQLEx5DZXJ0QXV0aG9yaXR5IEJDSU8g
SVQgU2VydmljZXMxFDASBgNVBAMTC0lUIFNlcnZpY2VzMSIwIAYJKoZIhvcNAQkB
FhNhZG1pbkBicmFpbmNyYWZ0LmlvMB4XDTE5MDYwMTA1MzIwM1oXDTIwMDUzMTA1
MzIwM1owgb0xCzAJBgNVBAYTAlVTMQ8wDQYDVQQIEwZIYXdhaWkxEDAOBgNVBAcT
B0thbXVlbGExFjAUBgNVBAoTDUJyYWluQ3JhZnQuaW8xJzAlBgNVBAsTHkNlcnRB
dXRob3JpdHkgQkNJTyBJVCBTZXJ2aWNlczEmMCQGA1UEAxMdbHhkLm1pcnJvci5j
b3JwLmJyYWluY3JhZnQuaW8xIjAgBgkqhkiG9w0BCQEWE2FkbWluQGJyYWluY3Jh
ZnQuaW8wgZ8wDQYJKoZIhvcNAQEBBQADgY0AMIGJAoGBAPVvAi5o+DjIMUZqRgcx
S8tf20QIq6WyrXYrJY4jGFWMwwkv4xa7o7VGEzxPdg8ziKDF/aeWBb+/yRlfyaJh
iTxbhH8U4HntTUbZgpZgI5/brYuDhKMeI9WASsQlK2CVTTFyE+qpYwnpucKatEE+
NkFMRR/CtzJ5j9+uiXLFv0FrAgMBAAGjggFSMIIBTjAJBgNVHRMEAjAAMD8GCWCG
SAGG+EIBDQQyFjBCQ0lPIENlcnRBdXRob3JpdHkgT3BlblNTTCBHZW5lcmF0ZWQg
Q2VydGlmaWNhdGUwHQYDVR0OBBYEFNv3wWkV9HUvlxoWsA78hFmIVfN0MIHgBgNV
HSMEgdgwgdWAFG1rISkYQN0EkPUEiEiW+qakAYPhoYGxpIGuMIGrMQswCQYDVQQG
EwJVUzEPMA0GA1UECBMGSGF3YWlpMRAwDgYDVQQHEwdLYW11ZWxhMRYwFAYDVQQK
Ew1CcmFpbkNyYWZ0LmlvMScwJQYDVQQLEx5DZXJ0QXV0aG9yaXR5IEJDSU8gSVQg
U2VydmljZXMxFDASBgNVBAMTC0lUIFNlcnZpY2VzMSIwIAYJKoZIhvcNAQkBFhNh
ZG1pbkBicmFpbmNyYWZ0LmlvggkAsAJxIw1S2FUwDQYJKoZIhvcNAQELBQADgYEA
nuMdAKbfj5kyqCTj6869ZBI47kbZo8/3w5xXAqiPOiwKWvtLeDoLOUgBP38HRJVk
NSX+xXkLA0YoEQkEL/HYmNnjNds/Nr59TeP+CICCHkR97g+wBdxm+bm1RNwdVdD8
Y8AXaShERekmUWS/IEE22lQLyJZcTSIhZhj1H4RBvp0=
-----END CERTIFICATE-----
